; Function Attrs: mustprogress nofree norecurse nosync nounwind sspstrong willreturn memory(argmem: read) uwtable
define internal range(i32 0, 2) i32 @shakti_uart_can_receive(ptr noundef readonly captures(none) %opaque) #2 {
entry:
  %uart_status = getelementptr inbounds nuw i8, ptr %opaque, i64 1100
  %0 = load i32, ptr %uart_status, align 4
  %and = lshr i32 %0, 2
  %and.lobit = and i32 %and, 1
  %lnot.ext = xor i32 %and.lobit, 1
  ret i32 %lnot.ext
}